; Function Attrs: mustprogress uwtable
define noundef range(i64 0, -1) i64 @_ZNK32pxrInternal_v0_24__pxrReserved__17ArFilesystemAsset4ReadEPvmm(ptr nocapture noundef nonnull readonly align 8 dereferenceable(16) %0, ptr noundef %1, i64 noundef %2, i64 noundef %3) unnamed_addr #0 align 2 personality ptr @__gxx_personality_v0 {
  %5 = alloca %"class.pxrInternal_v0_24__pxrReserved__::TfCallContext", align 8
  %6 = alloca %"class.std::__cxx11::basic_string", align 8
  %7 = getelementptr inbounds nuw i8, ptr %0, i64 8
  %8 = load ptr, ptr %7, align 8
  %9 = tail call noundef i64 @_ZN32pxrInternal_v0_24__pxrReserved__9ArchPReadEP8_IO_FILEPvml(ptr noundef %8, ptr noundef %1, i64 noundef %2, i64 noundef %3)
  %10 = icmp eq i64 %9, -1
  br i1 %10, label %11, label %20

11:                                               ; preds = %4
  store ptr @.str.1, ptr %5, align 8
  %12 = getelementptr inbounds nuw i8, ptr %5, i64 8
  store ptr @__func__._ZNK32pxrInternal_v0_24__pxrReserved__17ArFilesystemAsset4ReadEPvmm, ptr %12, align 8
  %13 = getelementptr inbounds nuw i8, ptr %5, i64 16
  store i64 88, ptr %13, align 8
  %14 = getelementptr inbounds nuw i8, ptr %5, i64 24
  store ptr @__PRETTY_FUNCTION__._ZNK32pxrInternal_v0_24__pxrReserved__17ArFilesystemAsset4ReadEPvmm, ptr %14, align 8
  %15 = getelementptr inbounds nuw i8, ptr %5, i64 32
  store i8 0, ptr %15, align 8
  call void @_ZN32pxrInternal_v0_24__pxrReserved__12ArchStrerrorB5cxx11Ev(ptr dead_on_unwind nonnull writable sret(%"class.std::__cxx11::basic_string") align 8 %6)
  %16 = call noundef ptr @_ZNKSt7__cxx1112basic_stringIcSt11char_traitsIcESaIcEE5c_strEv(ptr noundef nonnull align 8 dereferenceable(32) %6) #15
  invoke void (ptr, i32, ptr, ...) @_ZN32pxrInternal_v0_24__pxrReserved__18Tf_PostErrorHelperERKNS_13TfCallContextENS_16TfDiagnosticTypeEPKcz(ptr noundef nonnull align 8 dereferenceable(33) %5, i32 noundef 3, ptr noundef nonnull @.str.3, ptr noundef %16)
          to label %17 unwind label %18

17:                                               ; preds = %11
  call void @_ZNSt7__cxx1112basic_stringIcSt11char_traitsIcESaIcEED1Ev(ptr noundef nonnull align 8 dereferenceable(32) %6) #15
  br label %20

18:                                               ; preds = %11
  %19 = landingpad { ptr, i32 }
          cleanup
  call void @_ZNSt7__cxx1112basic_stringIcSt11char_traitsIcESaIcEED1Ev(ptr noundef nonnull align 8 dereferenceable(32) %6) #15
  resume { ptr, i32 } %19

20:                                               ; preds = %4, %17
  %.0 = phi i64 [ 0, %17 ], [ %9, %4 ]
  ret i64 %.0
}